target datalayout = "e-m:e-p270:32:32-p271:32:32-p272:64:64-i64:64-i128:128-f80:128-n8:16:32:64-S128"
target triple = "x86_64-pc-linux-gnu"

%struct.test_fixture = type { ptr, i32, ptr, ptr }
%struct.ossl_cmp_pkiheader_st = type { ptr, ptr, ptr, ptr, ptr, ptr, ptr, ptr, ptr, ptr, ptr, ptr }

@.str.6 = private unnamed_addr constant [24 x i8] c"test_HDR_push0_freeText\00", align 1
@.str.13 = private unnamed_addr constant [31 x i8] c"../openssl/test/cmp_hdr_test.c\00", align 1
@.str.18 = private unnamed_addr constant [2 x i8] c"1\00", align 1
@.str.46 = private unnamed_addr constant [5 x i8] c"text\00", align 1
@.str.47 = private unnamed_addr constant [12 x i8] c"A free text\00", align 1
@.str.48 = private unnamed_addr constant [48 x i8] c"ossl_cmp_hdr_push0_freeText(fixture->hdr, text)\00", align 1
@.str.49 = private unnamed_addr constant [60 x i8] c"text == sk_ASN1_UTF8STRING_value(fixture->hdr->freeText, 0)\00", align 1

; Function Attrs: inlinehint nounwind uwtable
define internal ptr @ossl_check_const_ASN1_UTF8STRING_sk_type(ptr noundef %0) #5 {
  %2 = alloca ptr, align 8
  store ptr %0, ptr %2, align 8, !tbaa !53
  %3 = load ptr, ptr %2, align 8, !tbaa !53
  ret ptr %3
}

; Function Attrs: nounwind uwtable
define internal void @tear_down(ptr noundef %0) #0 {
  %2 = alloca ptr, align 8
  store ptr %0, ptr %2, align 8, !tbaa !4
  %3 = load ptr, ptr %2, align 8, !tbaa !4
  %4 = getelementptr inbounds nuw %struct.test_fixture, ptr %3, i32 0, i32 3
  %5 = load ptr, ptr %4, align 8, !tbaa !21
  call void @OSSL_CMP_PKIHEADER_free(ptr noundef %5)
  %6 = load ptr, ptr %2, align 8, !tbaa !4
  %7 = getelementptr inbounds nuw %struct.test_fixture, ptr %6, i32 0, i32 2
  %8 = load ptr, ptr %7, align 8, !tbaa !16
  call void @OSSL_CMP_CTX_free(ptr noundef %8)
  %9 = load ptr, ptr %2, align 8, !tbaa !4
  call void @CRYPTO_free(ptr noundef %9, ptr noundef @.str.13, i32 noundef 28)
  ret void
}

; Function Attrs: nounwind uwtable
define internal i32 @execute_HDR_push0_freeText_test(ptr noundef %0) #0 {
  %2 = alloca i32, align 4
  %3 = alloca ptr, align 8
  %4 = alloca ptr, align 8
  %5 = alloca i32, align 4
  store ptr %0, ptr %3, align 8, !tbaa !4
  call void @llvm.lifetime.start.p0(i64 8, ptr %4) #7
  %6 = call ptr @ASN1_UTF8STRING_new()
  store ptr %6, ptr %4, align 8, !tbaa !22
  %7 = load ptr, ptr %4, align 8, !tbaa !22
  %8 = call i32 @test_ptr(ptr noundef @.str.13, i32 noundef 248, ptr noundef @.str.46, ptr noundef %7)
  %9 = icmp ne i32 %8, 0
  br i1 %9, label %11, label %10

10:                                               ; preds = %1
  store i32 0, ptr %2, align 4
  store i32 1, ptr %5, align 4
  br label %44

11:                                               ; preds = %1
  %12 = load ptr, ptr %4, align 8, !tbaa !22
  %13 = call i32 @ASN1_STRING_set(ptr noundef %12, ptr noundef @.str.47, i32 noundef -1)
  %14 = icmp ne i32 %13, 0
  br i1 %14, label %16, label %15

15:                                               ; preds = %11
  br label %42

16:                                               ; preds = %11
  %17 = load ptr, ptr %3, align 8, !tbaa !4
  %18 = getelementptr inbounds nuw %struct.test_fixture, ptr %17, i32 0, i32 3
  %19 = load ptr, ptr %18, align 8, !tbaa !21
  %20 = load ptr, ptr %4, align 8, !tbaa !22
  %21 = call i32 @ossl_cmp_hdr_push0_freeText(ptr noundef %19, ptr noundef %20)
  %22 = call i32 @test_int_eq(ptr noundef @.str.13, i32 noundef 254, ptr noundef @.str.48, ptr noundef @.str.18, i32 noundef %21, i32 noundef 1)
  %23 = icmp ne i32 %22, 0
  br i1 %23, label %25, label %24

24:                                               ; preds = %16
  br label %42

25:                                               ; preds = %16
  %26 = load ptr, ptr %4, align 8, !tbaa !22
  %27 = load ptr, ptr %3, align 8, !tbaa !4
  %28 = getelementptr inbounds nuw %struct.test_fixture, ptr %27, i32 0, i32 3
  %29 = load ptr, ptr %28, align 8, !tbaa !21
  %30 = getelementptr inbounds nuw %struct.ossl_cmp_pkiheader_st, ptr %29, i32 0, i32 10
  %31 = load ptr, ptr %30, align 8, !tbaa !52
  %32 = call ptr @ossl_check_const_ASN1_UTF8STRING_sk_type(ptr noundef %31)
  %33 = call ptr @OPENSSL_sk_value(ptr noundef %32, i32 noundef 0)
  %34 = icmp eq ptr %26, %33
  %35 = zext i1 %34 to i32
  %36 = icmp ne i32 %35, 0
  %37 = zext i1 %36 to i32
  %38 = call i32 @test_true(ptr noundef @.str.13, i32 noundef 257, ptr noundef @.str.49, i32 noundef %37)
  %39 = icmp ne i32 %38, 0
  br i1 %39, label %41, label %40

40:                                               ; preds = %25
  br label %42

41:                                               ; preds = %25
  store i32 1, ptr %2, align 4
  store i32 1, ptr %5, align 4
  br label %44

42:                                               ; preds = %40, %24, %15
  %43 = load ptr, ptr %4, align 8, !tbaa !22
  call void @ASN1_UTF8STRING_free(ptr noundef %43)
  store i32 0, ptr %2, align 4
  store i32 1, ptr %5, align 4
  br label %44

44:                                               ; preds = %42, %41, %10
  call void @llvm.lifetime.end.p0(i64 8, ptr %4) #7
  %45 = load i32, ptr %2, align 4
  ret i32 %45
}

; Function Attrs: nounwind uwtable
define internal i32 @test_HDR_push0_freeText() #0 {
  %1 = alloca i32, align 4
  %2 = alloca ptr, align 8
  %3 = alloca i32, align 4
  %4 = alloca i32, align 4
  call void @llvm.lifetime.start.p0(i64 8, ptr %2) #7
  %5 = call ptr @set_up(ptr noundef @.str.6)
  store ptr %5, ptr %2, align 8, !tbaa !4
  call void @llvm.lifetime.start.p0(i64 4, ptr %3) #7
  store i32 0, ptr %3, align 4, !tbaa !9
  %6 = load ptr, ptr %2, align 8, !tbaa !4
  %7 = icmp eq ptr %6, null
  br i1 %7, label %8, label %9

8:                                                ; preds = %0
  store i32 0, ptr %1, align 4
  store i32 1, ptr %4, align 4
  br label %20

9:                                                ; preds = %0
  %10 = load ptr, ptr %2, align 8, !tbaa !4
  %11 = getelementptr inbounds nuw %struct.test_fixture, ptr %10, i32 0, i32 1
  store i32 1, ptr %11, align 8, !tbaa !11
  %12 = load ptr, ptr %2, align 8, !tbaa !4
  %13 = icmp ne ptr %12, null
  br i1 %13, label %14, label %18

14:                                               ; preds = %9
  %15 = load ptr, ptr %2, align 8, !tbaa !4
  %16 = call i32 @execute_HDR_push0_freeText_test(ptr noundef %15)
  store i32 %16, ptr %3, align 4, !tbaa !9
  %17 = load ptr, ptr %2, align 8, !tbaa !4
  call void @tear_down(ptr noundef %17)
  br label %18

18:                                               ; preds = %14, %9
  %19 = load i32, ptr %3, align 4, !tbaa !9
  store i32 %19, ptr %1, align 4
  store i32 1, ptr %4, align 4
  br label %20

20:                                               ; preds = %18, %8
  call void @llvm.lifetime.end.p0(i64 4, ptr %3) #7
  call void @llvm.lifetime.end.p0(i64 8, ptr %2) #7
  %21 = load i32, ptr %1, align 4
  ret i32 %21
}