; Function Attrs: nounwind uwtable
define internal range(i32 0, 2) i32 @test_HDR_push0_freeText() #1 {
  %1 = tail call fastcc ptr @set_up(ptr noundef nonnull @.str.6)
  %2 = icmp eq ptr %1, null
  br i1 %2, label %27, label %3

3:                                                ; preds = %0
  %4 = getelementptr inbounds nuw i8, ptr %1, i64 8
  store i32 1, ptr %4, align 8, !tbaa !4
  %5 = tail call ptr @ASN1_UTF8STRING_new() #8
  %6 = tail call i32 @test_ptr(ptr noundef nonnull @.str.13, i32 noundef 248, ptr noundef nonnull @.str.46, ptr noundef %5) #8
  %.not.i = icmp eq i32 %6, 0
  br i1 %.not.i, label %execute_HDR_push0_freeText_test.exit, label %7

7:                                                ; preds = %3
  %8 = tail call i32 @ASN1_STRING_set(ptr noundef %5, ptr noundef nonnull @.str.47, i32 noundef -1) #8
  %.not7.i = icmp eq i32 %8, 0
  br i1 %.not7.i, label %22, label %9

9:                                                ; preds = %7
  %10 = getelementptr inbounds nuw i8, ptr %1, i64 24
  %11 = load ptr, ptr %10, align 8, !tbaa !13
  %12 = tail call i32 @ossl_cmp_hdr_push0_freeText(ptr noundef %11, ptr noundef %5) #8
  %13 = tail call i32 @test_int_eq(ptr noundef nonnull @.str.13, i32 noundef 254, ptr noundef nonnull @.str.48, ptr noundef nonnull @.str.18, i32 noundef %12, i32 noundef 1) #8
  %.not8.i = icmp eq i32 %13, 0
  br i1 %.not8.i, label %22, label %14

14:                                               ; preds = %9
  %15 = load ptr, ptr %10, align 8, !tbaa !13
  %16 = getelementptr inbounds nuw i8, ptr %15, i64 80
  %17 = load ptr, ptr %16, align 8, !tbaa !47
  %18 = tail call ptr @OPENSSL_sk_value(ptr noundef %17, i32 noundef 0) #8
  %19 = icmp eq ptr %5, %18
  %20 = zext i1 %19 to i32
  %21 = tail call i32 @test_true(ptr noundef nonnull @.str.13, i32 noundef 257, ptr noundef nonnull @.str.49, i32 noundef %20) #8
  %.not9.i = icmp eq i32 %21, 0
  br i1 %.not9.i, label %22, label %execute_HDR_push0_freeText_test.exit

22:                                               ; preds = %14, %9, %7
  tail call void @ASN1_UTF8STRING_free(ptr noundef %5) #8
  br label %execute_HDR_push0_freeText_test.exit

execute_HDR_push0_freeText_test.exit:             ; preds = %3, %14, %22
  %.0.i = phi i32 [ 0, %22 ], [ 0, %3 ], [ 1, %14 ]
  %23 = getelementptr inbounds nuw i8, ptr %1, i64 24
  %24 = load ptr, ptr %23, align 8, !tbaa !13
  tail call void @OSSL_CMP_PKIHEADER_free(ptr noundef %24) #8
  %25 = getelementptr inbounds nuw i8, ptr %1, i64 16
  %26 = load ptr, ptr %25, align 8, !tbaa !14
  tail call void @OSSL_CMP_CTX_free(ptr noundef %26) #8
  tail call void @CRYPTO_free(ptr noundef nonnull %1, ptr noundef nonnull @.str.13, i32 noundef 28) #8
  br label %27

27:                                               ; preds = %0, %execute_HDR_push0_freeText_test.exit
  %.06 = phi i32 [ %.0.i, %execute_HDR_push0_freeText_test.exit ], [ 0, %0 ]
  ret i32 %.06
}